target datalayout = "e-m:e-p270:32:32-p271:32:32-p272:64:64-i64:64-i128:128-f80:128-n8:16:32:64-S128"
target triple = "x86_64-unknown-linux-gnu"

%"class.std::basic_string_view" = type { i64, ptr }

@.str = private unnamed_addr constant [2 x i8] c"/\00", align 1
@_ZN8facebook5velox11filesystems12_GLOBAL__N_111kFileSchemeE = internal constant %"class.std::basic_string_view" { i64 5, ptr @.str.1 }, align 8

; Function Attrs: mustprogress nounwind uwtable
define linkonce_odr noundef i32 @_ZNSt11char_traitsIcE7compareEPKcS2_m(ptr noundef %__s1, ptr noundef %__s2, i64 noundef %__n) #1 comdat align 2 {
entry:
  %retval = alloca i32, align 4
  %__s1.addr = alloca ptr, align 8
  %__s2.addr = alloca ptr, align 8
  %__n.addr = alloca i64, align 8
  store ptr %__s1, ptr %__s1.addr, align 8
  store ptr %__s2, ptr %__s2.addr, align 8
  store i64 %__n, ptr %__n.addr, align 8
  %0 = load i64, ptr %__n.addr, align 8
  %cmp = icmp eq i64 %0, 0
  br i1 %cmp, label %if.then, label %if.end

if.then:                                          ; preds = %entry
  store i32 0, ptr %retval, align 4
  br label %return

if.end:                                           ; preds = %entry
  %1 = load ptr, ptr %__s1.addr, align 8
  %2 = load ptr, ptr %__s2.addr, align 8
  %3 = load i64, ptr %__n.addr, align 8
  %call = call i32 @memcmp(ptr noundef %1, ptr noundef %2, i64 noundef %3) #5
  store i32 %call, ptr %retval, align 4
  br label %return

return:                                           ; preds = %if.end, %if.then
  %4 = load i32, ptr %retval, align 4
  ret i32 %4
}

; Function Attrs: mustprogress nounwind uwtable
define linkonce_odr noundef ptr @_ZNSt11char_traitsIcE4findEPKcmRS1_(ptr noundef %__s, i64 noundef %__n, ptr noundef nonnull align 1 dereferenceable(1) %__a) #1 comdat align 2 {
entry:
  %retval = alloca ptr, align 8
  %__s.addr = alloca ptr, align 8
  %__n.addr = alloca i64, align 8
  %__a.addr = alloca ptr, align 8
  store ptr %__s, ptr %__s.addr, align 8
  store i64 %__n, ptr %__n.addr, align 8
  store ptr %__a, ptr %__a.addr, align 8
  %0 = load i64, ptr %__n.addr, align 8
  %cmp = icmp eq i64 %0, 0
  br i1 %cmp, label %if.then, label %if.end

if.then:                                          ; preds = %entry
  store ptr null, ptr %retval, align 8
  br label %return

if.end:                                           ; preds = %entry
  %1 = load ptr, ptr %__s.addr, align 8
  %2 = load ptr, ptr %__a.addr, align 8
  %3 = load i8, ptr %2, align 1
  %conv = sext i8 %3 to i32
  %4 = load i64, ptr %__n.addr, align 8
  %call = call ptr @memchr(ptr noundef %1, i32 noundef %conv, i64 noundef %4) #5
  store ptr %call, ptr %retval, align 8
  br label %return

return:                                           ; preds = %if.end, %if.then
  %5 = load ptr, ptr %retval, align 8
  ret ptr %5
}

; Function Attrs: noreturn nounwind uwtable
define linkonce_odr hidden void @__clang_call_terminate(ptr noundef %0) #8 comdat {
  %2 = call ptr @__cxa_begin_catch(ptr %0) #5
  call void @_ZSt9terminatev() #16
  unreachable
}

; Function Attrs: mustprogress nounwind uwtable
define linkonce_odr noundef i64 @_ZNKSt17basic_string_viewIcSt11char_traitsIcEE4findEPKcmm(ptr noundef nonnull align 8 dereferenceable(16) %this, ptr noundef %__str, i64 noundef %__pos, i64 noundef %__n) #1 comdat align 2 personality ptr @__gxx_personality_v0 {
entry:
  %retval = alloca i64, align 8
  %this.addr = alloca ptr, align 8
  %__str.addr = alloca ptr, align 8
  %__pos.addr = alloca i64, align 8
  %__n.addr = alloca i64, align 8
  %__elem0 = alloca i8, align 1
  %__first = alloca ptr, align 8
  %__last = alloca ptr, align 8
  %__len = alloca i64, align 8
  store ptr %this, ptr %this.addr, align 8
  store ptr %__str, ptr %__str.addr, align 8
  store i64 %__pos, ptr %__pos.addr, align 8
  store i64 %__n, ptr %__n.addr, align 8
  %this1 = load ptr, ptr %this.addr, align 8
  %0 = load i64, ptr %__n.addr, align 8
  %cmp = icmp eq i64 %0, 0
  br i1 %cmp, label %if.then, label %if.end

if.then:                                          ; preds = %entry
  %1 = load i64, ptr %__pos.addr, align 8
  %_M_len = getelementptr inbounds %"class.std::basic_string_view", ptr %this1, i32 0, i32 0
  %2 = load i64, ptr %_M_len, align 8
  %cmp2 = icmp ule i64 %1, %2
  br i1 %cmp2, label %cond.true, label %cond.false

cond.true:                                        ; preds = %if.then
  %3 = load i64, ptr %__pos.addr, align 8
  br label %cond.end

cond.false:                                       ; preds = %if.then
  br label %cond.end

cond.end:                                         ; preds = %cond.false, %cond.true
  %cond = phi i64 [ %3, %cond.true ], [ -1, %cond.false ]
  store i64 %cond, ptr %retval, align 8
  br label %return

if.end:                                           ; preds = %entry
  %4 = load i64, ptr %__pos.addr, align 8
  %_M_len3 = getelementptr inbounds %"class.std::basic_string_view", ptr %this1, i32 0, i32 0
  %5 = load i64, ptr %_M_len3, align 8
  %cmp4 = icmp uge i64 %4, %5
  br i1 %cmp4, label %if.then5, label %if.end6

if.then5:                                         ; preds = %if.end
  store i64 -1, ptr %retval, align 8
  br label %return

if.end6:                                          ; preds = %if.end
  %6 = load ptr, ptr %__str.addr, align 8
  %arrayidx = getelementptr inbounds i8, ptr %6, i64 0
  %7 = load i8, ptr %arrayidx, align 1
  store i8 %7, ptr %__elem0, align 1
  %_M_str = getelementptr inbounds %"class.std::basic_string_view", ptr %this1, i32 0, i32 1
  %8 = load ptr, ptr %_M_str, align 8
  %9 = load i64, ptr %__pos.addr, align 8
  %add.ptr = getelementptr inbounds i8, ptr %8, i64 %9
  store ptr %add.ptr, ptr %__first, align 8
  %_M_str7 = getelementptr inbounds %"class.std::basic_string_view", ptr %this1, i32 0, i32 1
  %10 = load ptr, ptr %_M_str7, align 8
  %_M_len8 = getelementptr inbounds %"class.std::basic_string_view", ptr %this1, i32 0, i32 0
  %11 = load i64, ptr %_M_len8, align 8
  %add.ptr9 = getelementptr inbounds i8, ptr %10, i64 %11
  store ptr %add.ptr9, ptr %__last, align 8
  %_M_len10 = getelementptr inbounds %"class.std::basic_string_view", ptr %this1, i32 0, i32 0
  %12 = load i64, ptr %_M_len10, align 8
  %13 = load i64, ptr %__pos.addr, align 8
  %sub = sub i64 %12, %13
  store i64 %sub, ptr %__len, align 8
  br label %while.cond

while.cond:                                       ; preds = %if.end20, %if.end6
  %14 = load i64, ptr %__len, align 8
  %15 = load i64, ptr %__n.addr, align 8
  %cmp11 = icmp uge i64 %14, %15
  br i1 %cmp11, label %while.body, label %while.end

while.body:                                       ; preds = %while.cond
  %16 = load ptr, ptr %__first, align 8
  %17 = load i64, ptr %__len, align 8
  %18 = load i64, ptr %__n.addr, align 8
  %sub12 = sub i64 %17, %18
  %add = add i64 %sub12, 1
  %call = invoke noundef ptr @_ZNSt11char_traitsIcE4findEPKcmRS1_(ptr noundef %16, i64 noundef %add, ptr noundef nonnull align 1 dereferenceable(1) %__elem0)
          to label %invoke.cont unwind label %terminate.lpad

invoke.cont:                                      ; preds = %while.body
  store ptr %call, ptr %__first, align 8
  %19 = load ptr, ptr %__first, align 8
  %tobool = icmp ne ptr %19, null
  br i1 %tobool, label %if.end14, label %if.then13

if.then13:                                        ; preds = %invoke.cont
  store i64 -1, ptr %retval, align 8
  br label %return

if.end14:                                         ; preds = %invoke.cont
  %20 = load ptr, ptr %__first, align 8
  %21 = load ptr, ptr %__str.addr, align 8
  %22 = load i64, ptr %__n.addr, align 8
  %call16 = invoke noundef i32 @_ZNSt11char_traitsIcE7compareEPKcS2_m(ptr noundef %20, ptr noundef %21, i64 noundef %22)
          to label %invoke.cont15 unwind label %terminate.lpad

invoke.cont15:                                    ; preds = %if.end14
  %cmp17 = icmp eq i32 %call16, 0
  br i1 %cmp17, label %if.then18, label %if.end20

if.then18:                                        ; preds = %invoke.cont15
  %23 = load ptr, ptr %__first, align 8
  %_M_str19 = getelementptr inbounds %"class.std::basic_string_view", ptr %this1, i32 0, i32 1
  %24 = load ptr, ptr %_M_str19, align 8
  %sub.ptr.lhs.cast = ptrtoint ptr %23 to i64
  %sub.ptr.rhs.cast = ptrtoint ptr %24 to i64
  %sub.ptr.sub = sub i64 %sub.ptr.lhs.cast, %sub.ptr.rhs.cast
  store i64 %sub.ptr.sub, ptr %retval, align 8
  br label %return

if.end20:                                         ; preds = %invoke.cont15
  %25 = load ptr, ptr %__last, align 8
  %26 = load ptr, ptr %__first, align 8
  %incdec.ptr = getelementptr inbounds i8, ptr %26, i32 1
  store ptr %incdec.ptr, ptr %__first, align 8
  %sub.ptr.lhs.cast21 = ptrtoint ptr %25 to i64
  %sub.ptr.rhs.cast22 = ptrtoint ptr %incdec.ptr to i64
  %sub.ptr.sub23 = sub i64 %sub.ptr.lhs.cast21, %sub.ptr.rhs.cast22
  store i64 %sub.ptr.sub23, ptr %__len, align 8
  br label %while.cond, !llvm.loop !5

while.end:                                        ; preds = %while.cond
  store i64 -1, ptr %retval, align 8
  br label %return

return:                                           ; preds = %while.end, %if.then18, %if.then13, %if.then5, %cond.end
  %27 = load i64, ptr %retval, align 8
  ret i64 %27

terminate.lpad:                                   ; preds = %if.end14, %while.body
  %28 = landingpad { ptr, i32 }
          catch ptr null
  %29 = extractvalue { ptr, i32 } %28, 0
  call void @__clang_call_terminate(ptr %29) #16
  unreachable
}

; Function Attrs: mustprogress nounwind uwtable
define linkonce_odr noundef i64 @_ZNSt11char_traitsIcE6lengthEPKc(ptr noundef %__s) #1 comdat align 2 {
entry:
  %__s.addr = alloca ptr, align 8
  store ptr %__s, ptr %__s.addr, align 8
  %0 = load ptr, ptr %__s.addr, align 8
  %call = call i64 @strlen(ptr noundef %0) #5
  ret i64 %call
}

; Function Attrs: mustprogress nounwind uwtable
define linkonce_odr noundef i64 @_ZNKSt17basic_string_viewIcSt11char_traitsIcEE4findES2_m(ptr noundef nonnull align 8 dereferenceable(16) %this, i64 %__str.coerce0, ptr %__str.coerce1, i64 noundef %__pos) #1 comdat align 2 {
entry:
  %__str = alloca %"class.std::basic_string_view", align 8
  %this.addr = alloca ptr, align 8
  %__pos.addr = alloca i64, align 8
  %0 = getelementptr inbounds { i64, ptr }, ptr %__str, i32 0, i32 0
  store i64 %__str.coerce0, ptr %0, align 8
  %1 = getelementptr inbounds { i64, ptr }, ptr %__str, i32 0, i32 1
  store ptr %__str.coerce1, ptr %1, align 8
  store ptr %this, ptr %this.addr, align 8
  store i64 %__pos, ptr %__pos.addr, align 8
  %this1 = load ptr, ptr %this.addr, align 8
  %_M_str = getelementptr inbounds %"class.std::basic_string_view", ptr %__str, i32 0, i32 1
  %2 = load ptr, ptr %_M_str, align 8
  %3 = load i64, ptr %__pos.addr, align 8
  %_M_len = getelementptr inbounds %"class.std::basic_string_view", ptr %__str, i32 0, i32 0
  %4 = load i64, ptr %_M_len, align 8
  %call = call noundef i64 @_ZNKSt17basic_string_viewIcSt11char_traitsIcEE4findEPKcmm(ptr noundef nonnull align 8 dereferenceable(16) %this1, ptr noundef %2, i64 noundef %3, i64 noundef %4) #5
  ret i64 %call
}

; Function Attrs: mustprogress nounwind uwtable
define linkonce_odr noundef i64 @_ZNKSt17basic_string_viewIcSt11char_traitsIcEE4findEPKcm(ptr noundef nonnull align 8 dereferenceable(16) %this, ptr noundef nonnull %__str, i64 noundef %__pos) #1 comdat align 2 personality ptr @__gxx_personality_v0 {
entry:
  %this.addr = alloca ptr, align 8
  %__str.addr = alloca ptr, align 8
  %__pos.addr = alloca i64, align 8
  store ptr %this, ptr %this.addr, align 8
  store ptr %__str, ptr %__str.addr, align 8
  store i64 %__pos, ptr %__pos.addr, align 8
  %this1 = load ptr, ptr %this.addr, align 8
  %0 = load ptr, ptr %__str.addr, align 8
  %1 = load i64, ptr %__pos.addr, align 8
  %2 = load ptr, ptr %__str.addr, align 8
  %call = invoke noundef i64 @_ZNSt11char_traitsIcE6lengthEPKc(ptr noundef %2)
          to label %invoke.cont unwind label %terminate.lpad

invoke.cont:                                      ; preds = %entry
  %call2 = call noundef i64 @_ZNKSt17basic_string_viewIcSt11char_traitsIcEE4findEPKcmm(ptr noundef nonnull align 8 dereferenceable(16) %this1, ptr noundef %0, i64 noundef %1, i64 noundef %call) #5
  ret i64 %call2

terminate.lpad:                                   ; preds = %entry
  %3 = landingpad { ptr, i32 }
          catch ptr null
  %4 = extractvalue { ptr, i32 } %3, 0
  call void @__clang_call_terminate(ptr %4) #16
  unreachable
}

; Function Attrs: mustprogress nounwind uwtable
define internal noundef zeroext i1 @_ZZN8facebook5velox11filesystems12_GLOBAL__N_115LocalFileSystem13schemeMatcherEvENKUlSt17basic_string_viewIcSt11char_traitsIcEEE_clES7_(ptr noundef nonnull align 1 dereferenceable(1) %this, i64 %filePath.coerce0, ptr %filePath.coerce1) #1 align 2 {
entry:
  %filePath = alloca %"class.std::basic_string_view", align 8
  %this.addr = alloca ptr, align 8
  %agg.tmp = alloca %"class.std::basic_string_view", align 8
  %0 = getelementptr inbounds { i64, ptr }, ptr %filePath, i32 0, i32 0
  store i64 %filePath.coerce0, ptr %0, align 8
  %1 = getelementptr inbounds { i64, ptr }, ptr %filePath, i32 0, i32 1
  store ptr %filePath.coerce1, ptr %1, align 8
  store ptr %this, ptr %this.addr, align 8
  %call = call noundef i64 @_ZNKSt17basic_string_viewIcSt11char_traitsIcEE4findEPKcm(ptr noundef nonnull align 8 dereferenceable(16) %filePath, ptr noundef @.str, i64 noundef 0) #5
  %cmp = icmp eq i64 %call, 0
  br i1 %cmp, label %lor.end, label %lor.rhs

lor.rhs:                                          ; preds = %entry
  call void @llvm.memcpy.p0.p0.i64(ptr align 8 %agg.tmp, ptr align 8 @_ZN8facebook5velox11filesystems12_GLOBAL__N_111kFileSchemeE, i64 16, i1 false)
  %2 = getelementptr inbounds { i64, ptr }, ptr %agg.tmp, i32 0, i32 0
  %3 = load i64, ptr %2, align 8
  %4 = getelementptr inbounds { i64, ptr }, ptr %agg.tmp, i32 0, i32 1
  %5 = load ptr, ptr %4, align 8
  %call2 = call noundef i64 @_ZNKSt17basic_string_viewIcSt11char_traitsIcEE4findES2_m(ptr noundef nonnull align 8 dereferenceable(16) %filePath, i64 %3, ptr %5, i64 noundef 0) #5
  %cmp3 = icmp eq i64 %call2, 0
  br label %lor.end

lor.end:                                          ; preds = %lor.rhs, %entry
  %6 = phi i1 [ true, %entry ], [ %cmp3, %lor.rhs ]
  ret i1 %6
}

; Function Attrs: mustprogress nounwind uwtable
define linkonce_odr noundef ptr @_ZNKSt9_Any_data9_M_accessEv(ptr noundef nonnull align 8 dereferenceable(16) %this) #1 comdat align 2 {
entry:
  %this.addr = alloca ptr, align 8
  store ptr %this, ptr %this.addr, align 8
  %this1 = load ptr, ptr %this.addr, align 8
  %arrayidx = getelementptr inbounds [16 x i8], ptr %this1, i64 0, i64 0
  ret ptr %arrayidx
}

; Function Attrs: mustprogress uwtable
define internal noundef zeroext i1 @_ZSt13__invoke_implIbRZN8facebook5velox11filesystems12_GLOBAL__N_115LocalFileSystem13schemeMatcherEvEUlSt17basic_string_viewIcSt11char_traitsIcEEE_JS8_EET_St14__invoke_otherOT0_DpOT1_(ptr noundef nonnull align 1 dereferenceable(1) %__f, ptr noundef nonnull align 8 dereferenceable(16) %__args) #0 {
entry:
  %__f.addr = alloca ptr, align 8
  %__args.addr = alloca ptr, align 8
  %agg.tmp = alloca %"class.std::basic_string_view", align 8
  store ptr %__f, ptr %__f.addr, align 8
  store ptr %__args, ptr %__args.addr, align 8
  %0 = load ptr, ptr %__f.addr, align 8
  %1 = load ptr, ptr %__args.addr, align 8
  call void @llvm.memcpy.p0.p0.i64(ptr align 8 %agg.tmp, ptr align 8 %1, i64 16, i1 false)
  %2 = getelementptr inbounds { i64, ptr }, ptr %agg.tmp, i32 0, i32 0
  %3 = load i64, ptr %2, align 8
  %4 = getelementptr inbounds { i64, ptr }, ptr %agg.tmp, i32 0, i32 1
  %5 = load ptr, ptr %4, align 8
  %call = call noundef zeroext i1 @_ZZN8facebook5velox11filesystems12_GLOBAL__N_115LocalFileSystem13schemeMatcherEvENKUlSt17basic_string_viewIcSt11char_traitsIcEEE_clES7_(ptr noundef nonnull align 1 dereferenceable(1) %0, i64 %3, ptr %5)
  ret i1 %call
}

; Function Attrs: mustprogress nounwind uwtable
define internal noundef nonnull align 1 dereferenceable(1) ptr @_ZNKSt9_Any_data9_M_accessIZN8facebook5velox11filesystems12_GLOBAL__N_115LocalFileSystem13schemeMatcherEvEUlSt17basic_string_viewIcSt11char_traitsIcEEE_EERKT_v(ptr noundef nonnull align 8 dereferenceable(16) %this) #1 align 2 {
entry:
  %this.addr = alloca ptr, align 8
  store ptr %this, ptr %this.addr, align 8
  %this1 = load ptr, ptr %this.addr, align 8
  %call = call noundef ptr @_ZNKSt9_Any_data9_M_accessEv(ptr noundef nonnull align 8 dereferenceable(16) %this1) #5
  ret ptr %call
}

; Function Attrs: mustprogress uwtable
define internal noundef zeroext i1 @_ZSt10__invoke_rIbRZN8facebook5velox11filesystems12_GLOBAL__N_115LocalFileSystem13schemeMatcherEvEUlSt17basic_string_viewIcSt11char_traitsIcEEE_JS8_EENSt9enable_ifIX16is_invocable_r_vIT_T0_DpT1_EESC_E4typeEOSD_DpOSE_(ptr noundef nonnull align 1 dereferenceable(1) %__fn, ptr noundef nonnull align 8 dereferenceable(16) %__args) #0 {
entry:
  %__fn.addr = alloca ptr, align 8
  %__args.addr = alloca ptr, align 8
  store ptr %__fn, ptr %__fn.addr, align 8
  store ptr %__args, ptr %__args.addr, align 8
  %0 = load ptr, ptr %__fn.addr, align 8
  %1 = load ptr, ptr %__args.addr, align 8
  %call = call noundef zeroext i1 @_ZSt13__invoke_implIbRZN8facebook5velox11filesystems12_GLOBAL__N_115LocalFileSystem13schemeMatcherEvEUlSt17basic_string_viewIcSt11char_traitsIcEEE_JS8_EET_St14__invoke_otherOT0_DpOT1_(ptr noundef nonnull align 1 dereferenceable(1) %0, ptr noundef nonnull align 8 dereferenceable(16) %1)
  ret i1 %call
}

; Function Attrs: mustprogress nounwind uwtable
define internal noundef ptr @_ZNSt14_Function_base13_Base_managerIZN8facebook5velox11filesystems12_GLOBAL__N_115LocalFileSystem13schemeMatcherEvEUlSt17basic_string_viewIcSt11char_traitsIcEEE_E14_M_get_pointerERKSt9_Any_data(ptr noundef nonnull align 8 dereferenceable(16) %__source) #1 align 2 {
entry:
  %__source.addr = alloca ptr, align 8
  %__f = alloca ptr, align 8
  store ptr %__source, ptr %__source.addr, align 8
  %0 = load ptr, ptr %__source.addr, align 8
  %call = call noundef nonnull align 1 dereferenceable(1) ptr @_ZNKSt9_Any_data9_M_accessIZN8facebook5velox11filesystems12_GLOBAL__N_115LocalFileSystem13schemeMatcherEvEUlSt17basic_string_viewIcSt11char_traitsIcEEE_EERKT_v(ptr noundef nonnull align 8 dereferenceable(16) %0) #5
  store ptr %call, ptr %__f, align 8
  %1 = load ptr, ptr %__f, align 8
  ret ptr %1
}

; Function Attrs: mustprogress uwtable
define internal noundef zeroext i1 @_ZNSt17_Function_handlerIFbSt17basic_string_viewIcSt11char_traitsIcEEEZN8facebook5velox11filesystems12_GLOBAL__N_115LocalFileSystem13schemeMatcherEvEUlS3_E_E9_M_invokeERKSt9_Any_dataOS3_(ptr noundef nonnull align 8 dereferenceable(16) %__functor, ptr noundef nonnull align 8 dereferenceable(16) %__args) #0 align 2 {
entry:
  %__functor.addr = alloca ptr, align 8
  %__args.addr = alloca ptr, align 8
  store ptr %__functor, ptr %__functor.addr, align 8
  store ptr %__args, ptr %__args.addr, align 8
  %0 = load ptr, ptr %__functor.addr, align 8
  %call = call noundef ptr @_ZNSt14_Function_base13_Base_managerIZN8facebook5velox11filesystems12_GLOBAL__N_115LocalFileSystem13schemeMatcherEvEUlSt17basic_string_viewIcSt11char_traitsIcEEE_E14_M_get_pointerERKSt9_Any_data(ptr noundef nonnull align 8 dereferenceable(16) %0) #5
  %1 = load ptr, ptr %__args.addr, align 8
  %call1 = call noundef zeroext i1 @_ZSt10__invoke_rIbRZN8facebook5velox11filesystems12_GLOBAL__N_115LocalFileSystem13schemeMatcherEvEUlSt17basic_string_viewIcSt11char_traitsIcEEE_JS8_EENSt9enable_ifIX16is_invocable_r_vIT_T0_DpT1_EESC_E4typeEOSD_DpOSE_(ptr noundef nonnull align 1 dereferenceable(1) %call, ptr noundef nonnull align 8 dereferenceable(16) %1)
  ret i1 %call1
}