; Function Attrs: mustprogress nofree nounwind willreturn memory(read, inaccessiblemem: none) uwtable
define internal noundef zeroext i1 @_ZNSt17_Function_handlerIFbSt17basic_string_viewIcSt11char_traitsIcEEEZN8facebook5velox11filesystems12_GLOBAL__N_115LocalFileSystem13schemeMatcherEvEUlS3_E_E9_M_invokeERKSt9_Any_dataOS3_(ptr nocapture nonnull readnone align 8 %__functor, ptr nocapture noundef nonnull readonly align 8 dereferenceable(16) %__args) #9 align 2 personality ptr @__gxx_personality_v0 {
entry:
  %__args.val = load i64, ptr %__args, align 8
  %0 = getelementptr inbounds i8, ptr %__args, i64 8
  %__args.val1 = load ptr, ptr %0, align 8
  %cmp4.not.i.i.not.i.i.i = icmp eq i64 %__args.val, 0
  br i1 %cmp4.not.i.i.not.i.i.i, label %_ZSt10__invoke_rIbRZN8facebook5velox11filesystems12_GLOBAL__N_115LocalFileSystem13schemeMatcherEvEUlSt17basic_string_viewIcSt11char_traitsIcEEE_JS8_EENSt9enable_ifIX16is_invocable_r_vIT_T0_DpT1_EESC_E4typeEOSD_DpOSE_.exit, label %while.body.lr.ph.i.i.i.i.i

while.body.lr.ph.i.i.i.i.i:                       ; preds = %entry
  %add.ptr9.i.i.i.i.i = getelementptr inbounds i8, ptr %__args.val1, i64 %__args.val
  %sub.ptr.lhs.cast21.i.i.i.i.i = ptrtoint ptr %add.ptr9.i.i.i.i.i to i64
  br label %while.body.i.i.i.i.i

while.body.i.i.i.i.i:                             ; preds = %if.end20.i.i.i.i.i, %while.body.lr.ph.i.i.i.i.i
  %__len.022.i.i.i.i.i = phi i64 [ %__args.val, %while.body.lr.ph.i.i.i.i.i ], [ %sub.ptr.sub23.i.i.i.i.i, %if.end20.i.i.i.i.i ]
  %__first.021.i.i.i.i.i = phi ptr [ %__args.val1, %while.body.lr.ph.i.i.i.i.i ], [ %incdec.ptr.i.i.i.i.i, %if.end20.i.i.i.i.i ]
  %call.i.i.i.i.i.i = tail call ptr @memchr(ptr noundef %__first.021.i.i.i.i.i, i32 noundef 47, i64 noundef %__len.022.i.i.i.i.i) #23
  %tobool.not.i.i.i.i.i = icmp eq ptr %call.i.i.i.i.i.i, null
  br i1 %tobool.not.i.i.i.i.i, label %lor.rhs.i.i.i, label %_ZNSt11char_traitsIcE7compareEPKcS2_m.exit.i.i.i.i.i

_ZNSt11char_traitsIcE7compareEPKcS2_m.exit.i.i.i.i.i: ; preds = %while.body.i.i.i.i.i
  %lhsc.i.i.i = load i8, ptr %call.i.i.i.i.i.i, align 1
  %cmp17.i.i.i.i.i = icmp eq i8 %lhsc.i.i.i, 47
  br i1 %cmp17.i.i.i.i.i, label %_ZNKSt17basic_string_viewIcSt11char_traitsIcEE4findEPKcm.exit.i.i.i, label %if.end20.i.i.i.i.i

if.end20.i.i.i.i.i:                               ; preds = %_ZNSt11char_traitsIcE7compareEPKcS2_m.exit.i.i.i.i.i
  %incdec.ptr.i.i.i.i.i = getelementptr inbounds i8, ptr %call.i.i.i.i.i.i, i64 1
  %sub.ptr.rhs.cast22.i.i.i.i.i = ptrtoint ptr %incdec.ptr.i.i.i.i.i to i64
  %sub.ptr.sub23.i.i.i.i.i = sub i64 %sub.ptr.lhs.cast21.i.i.i.i.i, %sub.ptr.rhs.cast22.i.i.i.i.i
  %cmp11.not.i.i.i.i.i = icmp eq i64 %sub.ptr.sub23.i.i.i.i.i, 0
  br i1 %cmp11.not.i.i.i.i.i, label %lor.rhs.i.i.i, label %while.body.i.i.i.i.i, !llvm.loop !14

_ZNKSt17basic_string_viewIcSt11char_traitsIcEE4findEPKcm.exit.i.i.i: ; preds = %_ZNSt11char_traitsIcE7compareEPKcS2_m.exit.i.i.i.i.i
  %cmp.i.i.i = icmp eq ptr %call.i.i.i.i.i.i, %__args.val1
  br i1 %cmp.i.i.i, label %_ZSt10__invoke_rIbRZN8facebook5velox11filesystems12_GLOBAL__N_115LocalFileSystem13schemeMatcherEvEUlSt17basic_string_viewIcSt11char_traitsIcEEE_JS8_EENSt9enable_ifIX16is_invocable_r_vIT_T0_DpT1_EESC_E4typeEOSD_DpOSE_.exit, label %lor.rhs.i.i.i

lor.rhs.i.i.i:                                    ; preds = %if.end20.i.i.i.i.i, %while.body.i.i.i.i.i, %_ZNKSt17basic_string_viewIcSt11char_traitsIcEE4findEPKcm.exit.i.i.i
  %switch.i.i.i = icmp ult i64 %__args.val, 5
  br i1 %switch.i.i.i, label %_ZSt10__invoke_rIbRZN8facebook5velox11filesystems12_GLOBAL__N_115LocalFileSystem13schemeMatcherEvEUlSt17basic_string_viewIcSt11char_traitsIcEEE_JS8_EENSt9enable_ifIX16is_invocable_r_vIT_T0_DpT1_EESC_E4typeEOSD_DpOSE_.exit, label %while.body.i.i10.i.i.i

while.body.i.i10.i.i.i:                           ; preds = %lor.rhs.i.i.i, %if.end20.i.i22.i.i.i
  %__len.022.i.i11.i.i.i = phi i64 [ %sub.ptr.sub23.i.i25.i.i.i, %if.end20.i.i22.i.i.i ], [ %__args.val, %lor.rhs.i.i.i ]
  %__first.021.i.i12.i.i.i = phi ptr [ %incdec.ptr.i.i23.i.i.i, %if.end20.i.i22.i.i.i ], [ %__args.val1, %lor.rhs.i.i.i ]
  %add.i.i14.i.i.i = add i64 %__len.022.i.i11.i.i.i, -4
  %call.i.i.i17.i.i.i = tail call ptr @memchr(ptr noundef %__first.021.i.i12.i.i.i, i32 noundef 102, i64 noundef %add.i.i14.i.i.i) #23
  %tobool.not.i.i18.i.i.i = icmp eq ptr %call.i.i.i17.i.i.i, null
  br i1 %tobool.not.i.i18.i.i.i, label %_ZSt10__invoke_rIbRZN8facebook5velox11filesystems12_GLOBAL__N_115LocalFileSystem13schemeMatcherEvEUlSt17basic_string_viewIcSt11char_traitsIcEEE_JS8_EENSt9enable_ifIX16is_invocable_r_vIT_T0_DpT1_EESC_E4typeEOSD_DpOSE_.exit, label %_ZNSt11char_traitsIcE7compareEPKcS2_m.exit.i.i19.i.i.i

_ZNSt11char_traitsIcE7compareEPKcS2_m.exit.i.i19.i.i.i: ; preds = %while.body.i.i10.i.i.i
  %bcmp.i.i20.i.i.i = tail call i32 @bcmp(ptr noundef nonnull dereferenceable(5) %call.i.i.i17.i.i.i, ptr noundef nonnull dereferenceable(5) @.str.1, i64 5)
  %cmp17.i.i21.i.i.i = icmp eq i32 %bcmp.i.i20.i.i.i, 0
  br i1 %cmp17.i.i21.i.i.i, label %if.then18.i.i27.i.i.i, label %if.end20.i.i22.i.i.i

if.then18.i.i27.i.i.i:                            ; preds = %_ZNSt11char_traitsIcE7compareEPKcS2_m.exit.i.i19.i.i.i
  %1 = icmp eq ptr %call.i.i.i17.i.i.i, %__args.val1
  br label %_ZSt10__invoke_rIbRZN8facebook5velox11filesystems12_GLOBAL__N_115LocalFileSystem13schemeMatcherEvEUlSt17basic_string_viewIcSt11char_traitsIcEEE_JS8_EENSt9enable_ifIX16is_invocable_r_vIT_T0_DpT1_EESC_E4typeEOSD_DpOSE_.exit

if.end20.i.i22.i.i.i:                             ; preds = %_ZNSt11char_traitsIcE7compareEPKcS2_m.exit.i.i19.i.i.i
  %incdec.ptr.i.i23.i.i.i = getelementptr inbounds i8, ptr %call.i.i.i17.i.i.i, i64 1
  %sub.ptr.rhs.cast22.i.i24.i.i.i = ptrtoint ptr %incdec.ptr.i.i23.i.i.i to i64
  %sub.ptr.sub23.i.i25.i.i.i = sub i64 %sub.ptr.lhs.cast21.i.i.i.i.i, %sub.ptr.rhs.cast22.i.i24.i.i.i
  %cmp11.not.i.i26.i.i.i = icmp ult i64 %sub.ptr.sub23.i.i25.i.i.i, 5
  br i1 %cmp11.not.i.i26.i.i.i, label %_ZSt10__invoke_rIbRZN8facebook5velox11filesystems12_GLOBAL__N_115LocalFileSystem13schemeMatcherEvEUlSt17basic_string_viewIcSt11char_traitsIcEEE_JS8_EENSt9enable_ifIX16is_invocable_r_vIT_T0_DpT1_EESC_E4typeEOSD_DpOSE_.exit, label %while.body.i.i10.i.i.i, !llvm.loop !14

_ZSt10__invoke_rIbRZN8facebook5velox11filesystems12_GLOBAL__N_115LocalFileSystem13schemeMatcherEvEUlSt17basic_string_viewIcSt11char_traitsIcEEE_JS8_EENSt9enable_ifIX16is_invocable_r_vIT_T0_DpT1_EESC_E4typeEOSD_DpOSE_.exit: ; preds = %while.body.i.i10.i.i.i, %if.end20.i.i22.i.i.i, %entry, %_ZNKSt17basic_string_viewIcSt11char_traitsIcEE4findEPKcm.exit.i.i.i, %lor.rhs.i.i.i, %if.then18.i.i27.i.i.i
  %2 = phi i1 [ true, %_ZNKSt17basic_string_viewIcSt11char_traitsIcEE4findEPKcm.exit.i.i.i ], [ %1, %if.then18.i.i27.i.i.i ], [ false, %entry ], [ false, %lor.rhs.i.i.i ], [ false, %if.end20.i.i22.i.i.i ], [ false, %while.body.i.i10.i.i.i ]
  ret i1 %2
}